; Function Attrs: mustprogress nounwind uwtable
define noundef zeroext i1 @_ZN14sstateen_csr_t14unlogged_writeEm(ptr noundef nonnull align 8 captures(none) dereferenceable(64) %0, i64 noundef %1) unnamed_addr #7 align 2 {
  %3 = getelementptr inbounds nuw i8, ptr %0, i64 16
  %4 = load ptr, ptr %3, align 8, !tbaa !15
  %5 = getelementptr inbounds nuw i8, ptr %4, i64 850
  %6 = load i8, ptr %5, align 2, !tbaa !93, !range !94, !noundef !95
  %7 = trunc nuw i8 %6 to i1
  br i1 %7, label %8, label %39

8:                                                ; preds = %2
  %9 = getelementptr inbounds nuw i8, ptr %4, i64 3424
  %10 = getelementptr inbounds nuw i8, ptr %0, i64 48
  %11 = load i8, ptr %10, align 8, !tbaa !269
  %12 = zext i8 %11 to i64
  %13 = getelementptr inbounds nuw [4 x %"class.std::shared_ptr.32"], ptr %9, i64 0, i64 %12
  %14 = load ptr, ptr %13, align 8, !tbaa !176
  %15 = load ptr, ptr %14, align 8, !tbaa !3
  %16 = getelementptr inbounds nuw i8, ptr %15, i64 8
  %17 = load ptr, ptr %16, align 8
  %18 = tail call noundef i64 %17(ptr noundef nonnull align 8 dereferenceable(37) %14) #30
  %19 = and i64 %18, %1
  %20 = getelementptr inbounds nuw i8, ptr %0, i64 56
  %21 = load i64, ptr %20, align 8, !tbaa !271
  %22 = load ptr, ptr %3, align 8, !tbaa !15
  %23 = getelementptr inbounds nuw i8, ptr %22, i64 3296
  %24 = load i8, ptr %10, align 8, !tbaa !269
  %25 = zext i8 %24 to i64
  %26 = getelementptr inbounds nuw [4 x %"class.std::shared_ptr.32"], ptr %23, i64 0, i64 %25
  %27 = load ptr, ptr %26, align 8, !tbaa !176
  %28 = load ptr, ptr %27, align 8, !tbaa !3
  %29 = getelementptr inbounds nuw i8, ptr %28, i64 8
  %30 = load ptr, ptr %29, align 8
  %31 = tail call noundef i64 %30(ptr noundef nonnull align 8 dereferenceable(37) %27) #30
  %32 = and i64 %31, %21
  %33 = getelementptr inbounds nuw i8, ptr %0, i64 40
  %34 = load i64, ptr %33, align 8, !tbaa !159
  %35 = xor i64 %32, -1
  %36 = and i64 %34, %35
  %37 = and i64 %19, %32
  %38 = or i64 %36, %37
  store i64 %38, ptr %33, align 8, !tbaa !159
  br label %59

39:                                               ; preds = %2
  %40 = getelementptr inbounds nuw i8, ptr %0, i64 56
  %41 = load i64, ptr %40, align 8, !tbaa !271
  %42 = getelementptr inbounds nuw i8, ptr %4, i64 3296
  %43 = getelementptr inbounds nuw i8, ptr %0, i64 48
  %44 = load i8, ptr %43, align 8, !tbaa !269
  %45 = zext i8 %44 to i64
  %46 = getelementptr inbounds nuw [4 x %"class.std::shared_ptr.32"], ptr %42, i64 0, i64 %45
  %47 = load ptr, ptr %46, align 8, !tbaa !176
  %48 = load ptr, ptr %47, align 8, !tbaa !3
  %49 = getelementptr inbounds nuw i8, ptr %48, i64 8
  %50 = load ptr, ptr %49, align 8
  %51 = tail call noundef i64 %50(ptr noundef nonnull align 8 dereferenceable(37) %47) #30
  %52 = and i64 %51, %41
  %53 = getelementptr inbounds nuw i8, ptr %0, i64 40
  %54 = load i64, ptr %53, align 8, !tbaa !159
  %55 = xor i64 %52, -1
  %56 = and i64 %54, %55
  %57 = and i64 %52, %1
  %58 = or i64 %56, %57
  store i64 %58, ptr %53, align 8, !tbaa !159
  br label %59

59:                                               ; preds = %39, %8
  ret i1 true
}